target datalayout = "e-m:e-p270:32:32-p271:32:32-p272:64:64-i64:64-i128:128-f80:128-n8:16:32:64-S128"
target triple = "x86_64-pc-linux-gnu"

%struct.GenContext_ = type { i8, ptr, ptr, ptr, ptr, ptr, ptr, ptr, ptr, ptr, ptr, ptr, ptr, ptr, ptr, ptr, ptr, ptr, ptr, ptr, ptr, ptr, ptr, ptr, ptr, ptr, ptr, ptr, ptr, ptr, ptr, ptr, ptr, %struct.anon.85, i32, i32, %struct.DebugContext, ptr, ptr, ptr, %struct.BEValue, i8, %union.SourceSpan, ptr, ptr, ptr, ptr }
%struct.anon.85 = type { ptr, ptr, ptr }
%struct.DebugContext = type { i16, ptr, ptr, %struct.DebugFile_, ptr, ptr, ptr, ptr }
%struct.DebugFile_ = type { i16, ptr }
%struct.BEValue = type { i8, i32, ptr, ptr, ptr }
%union.SourceSpan = type { i64 }
%struct.VHeader_ = type { i32, i32, [0 x i8] }
%struct.Type_ = type { i32, ptr, ptr, ptr, %union.anon.90, ptr, ptr, %union.anon.92 }
%union.anon.90 = type { ptr }
%union.anon.92 = type { %struct.TypeFunction }
%struct.TypeFunction = type { ptr, ptr, ptr }
%struct.TypeArray = type { ptr, i32 }

; Function Attrs: nounwind uwtable
define internal ptr @vec_new_(i64 noundef %0, i64 noundef %1) #0 {
  %3 = alloca i64, align 8
  %4 = alloca i64, align 8
  %5 = alloca ptr, align 8
  store i64 %0, ptr %3, align 8
  store i64 %1, ptr %4, align 8
  %6 = load i64, ptr %3, align 8
  %7 = load i64, ptr %4, align 8
  %8 = mul i64 %6, %7
  %9 = add i64 %8, 8
  %10 = call ptr @calloc_arena(i64 noundef %9)
  store ptr %10, ptr %5, align 8
  %11 = load i64, ptr %4, align 8
  %12 = trunc i64 %11 to i32
  %13 = load ptr, ptr %5, align 8
  %14 = getelementptr inbounds %struct.VHeader_, ptr %13, i32 0, i32 1
  store i32 %12, ptr %14, align 4
  %15 = load ptr, ptr %5, align 8
  ret ptr %15
}

; Function Attrs: nounwind uwtable
define dso_local ptr @llvm_get_debug_type(ptr noundef %0, ptr noundef %1) #0 {
  %3 = alloca ptr, align 8
  %4 = alloca ptr, align 8
  store ptr %0, ptr %3, align 8
  store ptr %1, ptr %4, align 8
  %5 = load ptr, ptr %3, align 8
  %6 = load ptr, ptr %4, align 8
  %7 = load ptr, ptr %3, align 8
  %8 = getelementptr inbounds %struct.GenContext_, ptr %7, i32 0, i32 36
  %9 = getelementptr inbounds %struct.DebugContext, ptr %8, i32 0, i32 3
  %10 = getelementptr inbounds %struct.DebugFile_, ptr %9, i32 0, i32 1
  %11 = load ptr, ptr %10, align 8
  %12 = call ptr @llvm_get_debug_type_internal(ptr noundef %5, ptr noundef %6, ptr noundef %11)
  ret ptr %12
}

; Function Attrs: nounwind uwtable
define internal ptr @expand_(ptr noundef %0, i64 noundef %1) #0 {
  %3 = alloca ptr, align 8
  %4 = alloca i64, align 8
  %5 = alloca ptr, align 8
  %6 = alloca ptr, align 8
  %7 = alloca i64, align 8
  store ptr %0, ptr %3, align 8
  store i64 %1, ptr %4, align 8
  %8 = load ptr, ptr %3, align 8
  %9 = icmp ne ptr %8, null
  br i1 %9, label %13, label %10

10:                                               ; preds = %2
  %11 = load i64, ptr %4, align 8
  %12 = call ptr @vec_new_(i64 noundef %11, i64 noundef 8)
  store ptr %12, ptr %5, align 8
  br label %16

13:                                               ; preds = %2
  %14 = load ptr, ptr %3, align 8
  %15 = getelementptr inbounds %struct.VHeader_, ptr %14, i64 -1
  store ptr %15, ptr %5, align 8
  br label %16

16:                                               ; preds = %13, %10
  %17 = load ptr, ptr %5, align 8
  %18 = getelementptr inbounds %struct.VHeader_, ptr %17, i32 0, i32 0
  %19 = load i32, ptr %18, align 4
  %20 = load ptr, ptr %5, align 8
  %21 = getelementptr inbounds %struct.VHeader_, ptr %20, i32 0, i32 1
  %22 = load i32, ptr %21, align 4
  %23 = icmp eq i32 %19, %22
  br i1 %23, label %24, label %49

24:                                               ; preds = %16
  %25 = load i64, ptr %4, align 8
  %26 = load ptr, ptr %5, align 8
  %27 = getelementptr inbounds %struct.VHeader_, ptr %26, i32 0, i32 1
  %28 = load i32, ptr %27, align 4
  %29 = shl i32 %28, 1
  %30 = zext i32 %29 to i64
  %31 = call ptr @vec_new_(i64 noundef %25, i64 noundef %30)
  store ptr %31, ptr %6, align 8
  %32 = load i64, ptr %4, align 8
  %33 = load ptr, ptr %5, align 8
  %34 = getelementptr inbounds %struct.VHeader_, ptr %33, i32 0, i32 1
  %35 = load i32, ptr %34, align 4
  %36 = zext i32 %35 to i64
  %37 = mul i64 %32, %36
  %38 = add i64 %37, 8
  store i64 %38, ptr %7, align 8
  %39 = load ptr, ptr %6, align 8
  %40 = load ptr, ptr %5, align 8
  %41 = load i64, ptr %7, align 8
  call void @llvm.memcpy.p0.p0.i64(ptr align 4 %39, ptr align 4 %40, i64 %41, i1 false)
  %42 = load ptr, ptr %6, align 8
  store ptr %42, ptr %5, align 8
  %43 = load ptr, ptr %5, align 8
  %44 = getelementptr inbounds %struct.VHeader_, ptr %43, i32 0, i32 1
  %45 = load i32, ptr %44, align 4
  %46 = shl i32 %45, 1
  %47 = load ptr, ptr %6, align 8
  %48 = getelementptr inbounds %struct.VHeader_, ptr %47, i32 0, i32 1
  store i32 %46, ptr %48, align 4
  br label %49

49:                                               ; preds = %24, %16
  %50 = load ptr, ptr %5, align 8
  %51 = getelementptr inbounds %struct.VHeader_, ptr %50, i32 0, i32 0
  %52 = load i32, ptr %51, align 4
  %53 = add i32 %52, 1
  store i32 %53, ptr %51, align 4
  %54 = load ptr, ptr %5, align 8
  %55 = getelementptr inbounds %struct.VHeader_, ptr %54, i64 1
  ret ptr %55
}

; Function Attrs: nounwind uwtable
define internal ptr @llvm_debug_vector_type(ptr noundef %0, ptr noundef %1) #0 {
  %3 = alloca i32, align 4
  %4 = alloca ptr, align 8
  %5 = alloca ptr, align 8
  %6 = alloca i32, align 4
  %7 = alloca ptr, align 8
  %8 = alloca ptr, align 8
  %9 = alloca ptr, align 8
  %10 = alloca ptr, align 8
  %11 = alloca ptr, align 8
  %12 = alloca ptr, align 8
  %13 = alloca ptr, align 8
  store ptr %0, ptr %9, align 8
  store ptr %1, ptr %10, align 8
  store ptr null, ptr %11, align 8
  %14 = load ptr, ptr %10, align 8
  store ptr %14, ptr %12, align 8
  br label %15

15:                                               ; preds = %54, %2
  %16 = load ptr, ptr %12, align 8
  %17 = getelementptr inbounds %struct.Type_, ptr %16, i32 0, i32 1
  %18 = load ptr, ptr %17, align 8
  %19 = getelementptr inbounds %struct.Type_, ptr %18, i32 0, i32 0
  %20 = load i32, ptr %19, align 8
  %21 = icmp eq i32 %20, 37
  br i1 %21, label %22, label %61

22:                                               ; preds = %15
  br label %23

23:                                               ; preds = %22
  %24 = load ptr, ptr %11, align 8
  %25 = call ptr @expand_(ptr noundef %24, i64 noundef 8)
  store ptr %25, ptr %13, align 8
  %26 = load ptr, ptr %13, align 8
  store ptr %26, ptr %11, align 8
  %27 = load ptr, ptr %9, align 8
  %28 = getelementptr inbounds %struct.GenContext_, ptr %27, i32 0, i32 36
  %29 = getelementptr inbounds %struct.DebugContext, ptr %28, i32 0, i32 1
  %30 = load ptr, ptr %29, align 8
  %31 = load ptr, ptr %12, align 8
  %32 = getelementptr inbounds %struct.Type_, ptr %31, i32 0, i32 1
  %33 = load ptr, ptr %32, align 8
  %34 = getelementptr inbounds %struct.Type_, ptr %33, i32 0, i32 7
  %35 = getelementptr inbounds %struct.TypeArray, ptr %34, i32 0, i32 1
  %36 = load i32, ptr %35, align 8
  %37 = zext i32 %36 to i64
  %38 = call ptr @LLVMDIBuilderGetOrCreateSubrange(ptr noundef %30, i64 noundef 0, i64 noundef %37)
  %39 = load ptr, ptr %11, align 8
  %40 = load ptr, ptr %11, align 8
  store ptr %40, ptr %4, align 8
  %41 = load ptr, ptr %4, align 8
  %42 = icmp ne ptr %41, null
  br i1 %42, label %44, label %43

43:                                               ; preds = %23
  store i32 0, ptr %3, align 4
  br label %49

44:                                               ; preds = %23
  %45 = load ptr, ptr %4, align 8
  store ptr %45, ptr %5, align 8
  %46 = load ptr, ptr %5, align 8
  %47 = getelementptr inbounds %struct.VHeader_, ptr %46, i64 -1
  %48 = load i32, ptr %47, align 4
  store i32 %48, ptr %3, align 4
  br label %49

49:                                               ; preds = %44, %43
  %50 = load i32, ptr %3, align 4
  %51 = sub i32 %50, 1
  %52 = zext i32 %51 to i64
  %53 = getelementptr inbounds ptr, ptr %39, i64 %52
  store ptr %38, ptr %53, align 8
  br label %54

54:                                               ; preds = %49
  %55 = load ptr, ptr %12, align 8
  %56 = getelementptr inbounds %struct.Type_, ptr %55, i32 0, i32 1
  %57 = load ptr, ptr %56, align 8
  %58 = getelementptr inbounds %struct.Type_, ptr %57, i32 0, i32 7
  %59 = getelementptr inbounds %struct.TypeArray, ptr %58, i32 0, i32 0
  %60 = load ptr, ptr %59, align 8
  store ptr %60, ptr %12, align 8
  br label %15, !llvm.loop !7

61:                                               ; preds = %15
  %62 = load ptr, ptr %9, align 8
  %63 = getelementptr inbounds %struct.GenContext_, ptr %62, i32 0, i32 36
  %64 = getelementptr inbounds %struct.DebugContext, ptr %63, i32 0, i32 1
  %65 = load ptr, ptr %64, align 8
  %66 = load ptr, ptr %10, align 8
  %67 = call i32 @type_size(ptr noundef %66)
  %68 = mul i32 %67, 8
  %69 = zext i32 %68 to i64
  %70 = load ptr, ptr %12, align 8
  %71 = call i32 @type_abi_alignment(ptr noundef %70)
  %72 = mul i32 %71, 8
  %73 = load ptr, ptr %9, align 8
  %74 = load ptr, ptr %12, align 8
  %75 = call ptr @llvm_get_debug_type(ptr noundef %73, ptr noundef %74)
  %76 = load ptr, ptr %11, align 8
  %77 = load ptr, ptr %11, align 8
  store ptr %77, ptr %7, align 8
  %78 = load ptr, ptr %7, align 8
  %79 = icmp ne ptr %78, null
  br i1 %79, label %81, label %80

80:                                               ; preds = %61
  store i32 0, ptr %6, align 4
  br label %86

81:                                               ; preds = %61
  %82 = load ptr, ptr %7, align 8
  store ptr %82, ptr %8, align 8
  %83 = load ptr, ptr %8, align 8
  %84 = getelementptr inbounds %struct.VHeader_, ptr %83, i64 -1
  %85 = load i32, ptr %84, align 4
  store i32 %85, ptr %6, align 4
  br label %86

86:                                               ; preds = %81, %80
  %87 = load i32, ptr %6, align 4
  %88 = call ptr @LLVMDIBuilderCreateVectorType(ptr noundef %65, i64 noundef %69, i32 noundef %72, ptr noundef %75, ptr noundef %76, i32 noundef %87)
  ret ptr %88
}