; Function Attrs: nounwind uwtable
define internal fastcc ptr @llvm_debug_vector_type(ptr nocapture noundef readonly %0, ptr noundef %1) unnamed_addr #0 {
  %3 = getelementptr inbounds i8, ptr %1, i64 8
  %4 = load ptr, ptr %3, align 8
  %5 = load i32, ptr %4, align 8
  %6 = icmp eq i32 %5, 37
  br i1 %6, label %.lr.ph, label %._crit_edge

.lr.ph:                                           ; preds = %2
  %7 = getelementptr inbounds i8, ptr %0, i64 304
  br label %8

8:                                                ; preds = %.lr.ph, %33
  %9 = phi ptr [ %3, %.lr.ph ], [ %50, %33 ]
  %.02428 = phi ptr [ null, %.lr.ph ], [ %36, %33 ]
  %.not.i = icmp eq ptr %.02428, null
  br i1 %.not.i, label %10, label %13

10:                                               ; preds = %8
  %11 = tail call ptr @calloc_arena(i64 noundef 72) #8
  %12 = getelementptr inbounds i8, ptr %11, i64 4
  store i32 8, ptr %12, align 4
  br label %15

13:                                               ; preds = %8
  %14 = getelementptr inbounds i8, ptr %.02428, i64 -8
  %.phi.trans.insert.i = getelementptr inbounds i8, ptr %.02428, i64 -4
  %.pre.i = load i32, ptr %.phi.trans.insert.i, align 4
  br label %15

15:                                               ; preds = %13, %10
  %16 = phi i32 [ %.pre.i, %13 ], [ 8, %10 ]
  %.0.i = phi ptr [ %14, %13 ], [ %11, %10 ]
  %17 = load i32, ptr %.0.i, align 4
  %18 = icmp eq i32 %17, %16
  br i1 %18, label %19, label %33

19:                                               ; preds = %15
  %20 = getelementptr inbounds i8, ptr %.0.i, i64 4
  %21 = shl i32 %16, 1
  %22 = zext i32 %21 to i64
  %23 = shl nuw nsw i64 %22, 3
  %24 = or disjoint i64 %23, 8
  %25 = tail call ptr @calloc_arena(i64 noundef %24) #8
  %26 = getelementptr inbounds i8, ptr %25, i64 4
  store i32 %21, ptr %26, align 4
  %27 = load i32, ptr %20, align 4
  %28 = zext i32 %27 to i64
  %29 = shl nuw nsw i64 %28, 3
  %30 = add nuw nsw i64 %29, 8
  tail call void @llvm.memcpy.p0.p0.i64(ptr noundef nonnull align 4 dereferenceable(1) %25, ptr noundef nonnull align 4 dereferenceable(1) %.0.i, i64 %30, i1 false)
  %31 = load i32, ptr %26, align 4
  %32 = shl i32 %31, 1
  store i32 %32, ptr %26, align 4
  %.pre18.i = load i32, ptr %25, align 4
  br label %33

33:                                               ; preds = %15, %19
  %34 = phi i32 [ %.pre18.i, %19 ], [ %17, %15 ]
  %.1.i = phi ptr [ %25, %19 ], [ %.0.i, %15 ]
  %35 = add i32 %34, 1
  store i32 %35, ptr %.1.i, align 4
  %36 = getelementptr inbounds i8, ptr %.1.i, i64 8
  %37 = load ptr, ptr %7, align 8
  %38 = load ptr, ptr %9, align 8
  %39 = getelementptr inbounds i8, ptr %38, i64 64
  %40 = load i32, ptr %39, align 8
  %41 = zext i32 %40 to i64
  %42 = tail call ptr @LLVMDIBuilderGetOrCreateSubrange(ptr noundef %37, i64 noundef 0, i64 noundef %41) #8
  %43 = load i32, ptr %.1.i, align 4
  %44 = add i32 %43, -1
  %45 = zext i32 %44 to i64
  %46 = getelementptr inbounds ptr, ptr %36, i64 %45
  store ptr %42, ptr %46, align 8
  %47 = load ptr, ptr %9, align 8
  %48 = getelementptr inbounds i8, ptr %47, i64 56
  %49 = load ptr, ptr %48, align 8
  %50 = getelementptr inbounds i8, ptr %49, i64 8
  %51 = load ptr, ptr %50, align 8
  %52 = load i32, ptr %51, align 8
  %53 = icmp eq i32 %52, 37
  br i1 %53, label %8, label %._crit_edge, !llvm.loop !7

._crit_edge:                                      ; preds = %33, %2
  %.024.lcssa = phi ptr [ null, %2 ], [ %36, %33 ]
  %.023.lcssa = phi ptr [ %1, %2 ], [ %49, %33 ]
  %54 = getelementptr inbounds i8, ptr %0, i64 304
  %55 = load ptr, ptr %54, align 8
  %56 = tail call i32 @type_size(ptr noundef %1) #8
  %57 = tail call i32 @type_abi_alignment(ptr noundef nonnull %.023.lcssa) #8
  %58 = getelementptr inbounds i8, ptr %0, i64 328
  %59 = load ptr, ptr %58, align 8
  %60 = tail call fastcc ptr @llvm_get_debug_type_internal(ptr noundef %0, ptr noundef nonnull %.023.lcssa, ptr noundef %59)
  %.not = icmp eq ptr %.024.lcssa, null
  br i1 %.not, label %64, label %61

61:                                               ; preds = %._crit_edge
  %62 = getelementptr inbounds i8, ptr %.024.lcssa, i64 -8
  %63 = load i32, ptr %62, align 4
  br label %64

64:                                               ; preds = %._crit_edge, %61
  %.025 = phi i32 [ %63, %61 ], [ 0, %._crit_edge ]
  %65 = shl i32 %57, 3
  %66 = shl i32 %56, 3
  %67 = zext i32 %66 to i64
  %68 = tail call ptr @LLVMDIBuilderCreateVectorType(ptr noundef %55, i64 noundef %67, i32 noundef %65, ptr noundef %60, ptr noundef %.024.lcssa, i32 noundef %.025) #8
  ret ptr %68
}